target datalayout = "e-m:e-p270:32:32-p271:32:32-p272:64:64-i64:64-i128:128-f80:128-n8:16:32:64-S128"
target triple = "x86_64-pc-linux-gnu"

%struct.png_info_def = type { i32, i32, i32, i64, ptr, i16, i16, i8, i8, i8, i8, i8, i8, i8, i8, [8 x i8], %struct.png_colorspace, ptr, ptr, i32, i32, i32, ptr, %struct.png_time_struct, %struct.png_color_8_struct, ptr, %struct.png_color_16_struct, %struct.png_color_16_struct, i32, i32, i8, i32, i32, i8, i32, ptr, ptr, ptr, ptr, i32, i32, ptr, ptr, i8, i8, i32, ptr, i32, ptr, i32, i8, ptr, ptr, ptr }
%struct.png_colorspace = type { i32, %struct.png_xy, %struct.png_XYZ, i16, i16 }
%struct.png_xy = type { i32, i32, i32, i32, i32, i32, i32, i32 }
%struct.png_XYZ = type { i32, i32, i32, i32, i32, i32, i32, i32, i32 }
%struct.png_time_struct = type { i16, i8, i8, i8, i8, i8 }
%struct.png_color_8_struct = type { i8, i8, i8, i8, i8 }
%struct.png_color_16_struct = type { i8, i16, i16, i16, i16 }
%struct.png_struct_def = type { [1 x %struct.__jmp_buf_tag], ptr, ptr, i64, ptr, ptr, ptr, ptr, ptr, ptr, ptr, ptr, ptr, i8, i8, i32, i32, i32, i32, %struct.z_stream_s, ptr, i32, i32, i32, i32, i32, i32, i32, i32, i32, i32, i32, i32, i32, i32, i32, i32, i32, i32, i32, i32, i64, i32, i32, i32, ptr, ptr, ptr, ptr, i64, i32, i32, ptr, i16, i32, i16, i8, i8, i8, i8, i8, i8, i8, i8, i8, i8, i8, i8, i8, i8, i8, i16, i8, i32, %struct.png_color_16_struct, %struct.png_color_16_struct, ptr, i32, i32, i32, i32, ptr, ptr, ptr, ptr, ptr, ptr, %struct.png_color_8_struct, %struct.png_color_8_struct, ptr, %struct.png_color_16_struct, ptr, ptr, ptr, ptr, ptr, ptr, ptr, ptr, ptr, i32, i32, i64, i64, i64, i64, i32, i32, ptr, ptr, i32, [29 x i8], i32, ptr, ptr, i32, i32, ptr, i8, i8, i16, i16, ptr, i32, i8, ptr, ptr, ptr, ptr, ptr, ptr, ptr, i8, i32, i32, i32, i64, %struct.png_unknown_chunk_t, i64, ptr, i64, i32, i32, ptr, [4 x ptr], %struct.png_colorspace }
%struct.__jmp_buf_tag = type { [8 x i64], i32, %struct.__sigset_t }
%struct.__sigset_t = type { [16 x i64] }
%struct.z_stream_s = type { ptr, i32, i64, ptr, i32, i64, ptr, ptr, ptr, ptr, ptr, i32, i64, i64 }
%struct.png_unknown_chunk_t = type { [5 x i8], ptr, i64, i8 }

@.str.43 = private unnamed_addr constant [24 x i8] c"too many unknown chunks\00", align 1
@.str.44 = private unnamed_addr constant [29 x i8] c"unknown chunk: out of memory\00", align 1
@.str.55 = private unnamed_addr constant [52 x i8] c"png_set_unknown_chunks now expects a valid location\00", align 1
@.str.56 = private unnamed_addr constant [43 x i8] c"invalid location in png_set_unknown_chunks\00", align 1

; Function Attrs: nounwind uwtable
define internal zeroext i8 @check_location(ptr noalias noundef %0, i32 noundef %1) #0 {
  %3 = alloca ptr, align 8
  %4 = alloca i32, align 4
  store ptr %0, ptr %3, align 8
  store i32 %1, ptr %4, align 4
  %5 = load i32, ptr %4, align 4
  %6 = and i32 %5, 11
  store i32 %6, ptr %4, align 4
  %7 = load i32, ptr %4, align 4
  %8 = icmp eq i32 %7, 0
  br i1 %8, label %9, label %23

9:                                                ; preds = %2
  %10 = load ptr, ptr %3, align 8
  %11 = getelementptr inbounds %struct.png_struct_def, ptr %10, i32 0, i32 15
  %12 = load i32, ptr %11, align 4
  %13 = and i32 %12, 32768
  %14 = icmp eq i32 %13, 0
  br i1 %14, label %15, label %23

15:                                               ; preds = %9
  %16 = load ptr, ptr %3, align 8
  call void @png_app_warning(ptr noundef %16, ptr noundef @.str.55)
  %17 = load ptr, ptr %3, align 8
  %18 = getelementptr inbounds %struct.png_struct_def, ptr %17, i32 0, i32 15
  %19 = load i32, ptr %18, align 4
  %20 = and i32 %19, 11
  %21 = trunc i32 %20 to i8
  %22 = zext i8 %21 to i32
  store i32 %22, ptr %4, align 4
  br label %23

23:                                               ; preds = %15, %9, %2
  %24 = load i32, ptr %4, align 4
  %25 = icmp eq i32 %24, 0
  br i1 %25, label %26, label %28

26:                                               ; preds = %23
  %27 = load ptr, ptr %3, align 8
  call void @png_error(ptr noundef %27, ptr noundef @.str.56) #7
  unreachable

28:                                               ; preds = %23
  br label %29

29:                                               ; preds = %36, %28
  %30 = load i32, ptr %4, align 4
  %31 = load i32, ptr %4, align 4
  %32 = load i32, ptr %4, align 4
  %33 = sub nsw i32 0, %32
  %34 = and i32 %31, %33
  %35 = icmp ne i32 %30, %34
  br i1 %35, label %36, label %44

36:                                               ; preds = %29
  %37 = load i32, ptr %4, align 4
  %38 = load i32, ptr %4, align 4
  %39 = sub nsw i32 0, %38
  %40 = and i32 %37, %39
  %41 = xor i32 %40, -1
  %42 = load i32, ptr %4, align 4
  %43 = and i32 %42, %41
  store i32 %43, ptr %4, align 4
  br label %29, !llvm.loop !11

44:                                               ; preds = %29
  %45 = load i32, ptr %4, align 4
  %46 = trunc i32 %45 to i8
  ret i8 %46
}

; Function Attrs: nounwind uwtable
define void @png_set_unknown_chunks(ptr noalias noundef %0, ptr noalias noundef %1, ptr noundef %2, i32 noundef %3) #0 {
  %5 = alloca ptr, align 8
  %6 = alloca ptr, align 8
  %7 = alloca ptr, align 8
  %8 = alloca i32, align 4
  %9 = alloca ptr, align 8
  store ptr %0, ptr %5, align 8
  store ptr %1, ptr %6, align 8
  store ptr %2, ptr %7, align 8
  store i32 %3, ptr %8, align 4
  %10 = load ptr, ptr %5, align 8
  %11 = icmp eq ptr %10, null
  br i1 %11, label %21, label %12

12:                                               ; preds = %4
  %13 = load ptr, ptr %6, align 8
  %14 = icmp eq ptr %13, null
  br i1 %14, label %21, label %15

15:                                               ; preds = %12
  %16 = load i32, ptr %8, align 4
  %17 = icmp sle i32 %16, 0
  br i1 %17, label %21, label %18

18:                                               ; preds = %15
  %19 = load ptr, ptr %7, align 8
  %20 = icmp eq ptr %19, null
  br i1 %20, label %21, label %22

21:                                               ; preds = %18, %15, %12, %4
  br label %125

22:                                               ; preds = %18
  %23 = load ptr, ptr %5, align 8
  %24 = load ptr, ptr %6, align 8
  %25 = getelementptr inbounds %struct.png_info_def, ptr %24, i32 0, i32 46
  %26 = load ptr, ptr %25, align 8
  %27 = load ptr, ptr %6, align 8
  %28 = getelementptr inbounds %struct.png_info_def, ptr %27, i32 0, i32 47
  %29 = load i32, ptr %28, align 8
  %30 = load i32, ptr %8, align 4
  %31 = call noalias ptr @png_realloc_array(ptr noundef %23, ptr noundef %26, i32 noundef %29, i32 noundef %30, i64 noundef 32)
  store ptr %31, ptr %9, align 8
  %32 = load ptr, ptr %9, align 8
  %33 = icmp eq ptr %32, null
  br i1 %33, label %34, label %36

34:                                               ; preds = %22
  %35 = load ptr, ptr %5, align 8
  call void @png_chunk_report(ptr noundef %35, ptr noundef @.str.43, i32 noundef 1)
  br label %125

36:                                               ; preds = %22
  %37 = load ptr, ptr %5, align 8
  %38 = load ptr, ptr %6, align 8
  %39 = getelementptr inbounds %struct.png_info_def, ptr %38, i32 0, i32 46
  %40 = load ptr, ptr %39, align 8
  call void @png_free(ptr noundef %37, ptr noundef %40)
  %41 = load ptr, ptr %9, align 8
  %42 = load ptr, ptr %6, align 8
  %43 = getelementptr inbounds %struct.png_info_def, ptr %42, i32 0, i32 46
  store ptr %41, ptr %43, align 8
  %44 = load ptr, ptr %6, align 8
  %45 = getelementptr inbounds %struct.png_info_def, ptr %44, i32 0, i32 45
  %46 = load i32, ptr %45, align 4
  %47 = or i32 %46, 512
  store i32 %47, ptr %45, align 4
  %48 = load ptr, ptr %6, align 8
  %49 = getelementptr inbounds %struct.png_info_def, ptr %48, i32 0, i32 47
  %50 = load i32, ptr %49, align 8
  %51 = load ptr, ptr %9, align 8
  %52 = sext i32 %50 to i64
  %53 = getelementptr inbounds %struct.png_unknown_chunk_t, ptr %51, i64 %52
  store ptr %53, ptr %9, align 8
  br label %54

54:                                               ; preds = %120, %36
  %55 = load i32, ptr %8, align 4
  %56 = icmp sgt i32 %55, 0
  br i1 %56, label %57, label %125

57:                                               ; preds = %54
  %58 = load ptr, ptr %9, align 8
  %59 = getelementptr inbounds %struct.png_unknown_chunk_t, ptr %58, i32 0, i32 0
  %60 = getelementptr inbounds [5 x i8], ptr %59, i64 0, i64 0
  %61 = load ptr, ptr %7, align 8
  %62 = getelementptr inbounds %struct.png_unknown_chunk_t, ptr %61, i32 0, i32 0
  %63 = getelementptr inbounds [5 x i8], ptr %62, i64 0, i64 0
  call void @llvm.memcpy.p0.p0.i64(ptr align 8 %60, ptr align 8 %63, i64 5, i1 false)
  %64 = load ptr, ptr %9, align 8
  %65 = getelementptr inbounds %struct.png_unknown_chunk_t, ptr %64, i32 0, i32 0
  %66 = getelementptr inbounds [5 x i8], ptr %65, i64 0, i64 4
  store i8 0, ptr %66, align 4
  %67 = load ptr, ptr %5, align 8
  %68 = load ptr, ptr %7, align 8
  %69 = getelementptr inbounds %struct.png_unknown_chunk_t, ptr %68, i32 0, i32 3
  %70 = load i8, ptr %69, align 8
  %71 = zext i8 %70 to i32
  %72 = call zeroext i8 @check_location(ptr noundef %67, i32 noundef %71)
  %73 = load ptr, ptr %9, align 8
  %74 = getelementptr inbounds %struct.png_unknown_chunk_t, ptr %73, i32 0, i32 3
  store i8 %72, ptr %74, align 8
  %75 = load ptr, ptr %7, align 8
  %76 = getelementptr inbounds %struct.png_unknown_chunk_t, ptr %75, i32 0, i32 2
  %77 = load i64, ptr %76, align 8
  %78 = icmp eq i64 %77, 0
  br i1 %78, label %79, label %84

79:                                               ; preds = %57
  %80 = load ptr, ptr %9, align 8
  %81 = getelementptr inbounds %struct.png_unknown_chunk_t, ptr %80, i32 0, i32 1
  store ptr null, ptr %81, align 8
  %82 = load ptr, ptr %9, align 8
  %83 = getelementptr inbounds %struct.png_unknown_chunk_t, ptr %82, i32 0, i32 2
  store i64 0, ptr %83, align 8
  br label %113

84:                                               ; preds = %57
  %85 = load ptr, ptr %5, align 8
  %86 = load ptr, ptr %7, align 8
  %87 = getelementptr inbounds %struct.png_unknown_chunk_t, ptr %86, i32 0, i32 2
  %88 = load i64, ptr %87, align 8
  %89 = call noalias ptr @png_malloc_base(ptr noundef %85, i64 noundef %88)
  %90 = load ptr, ptr %9, align 8
  %91 = getelementptr inbounds %struct.png_unknown_chunk_t, ptr %90, i32 0, i32 1
  store ptr %89, ptr %91, align 8
  %92 = load ptr, ptr %9, align 8
  %93 = getelementptr inbounds %struct.png_unknown_chunk_t, ptr %92, i32 0, i32 1
  %94 = load ptr, ptr %93, align 8
  %95 = icmp eq ptr %94, null
  br i1 %95, label %96, label %98

96:                                               ; preds = %84
  %97 = load ptr, ptr %5, align 8
  call void @png_chunk_report(ptr noundef %97, ptr noundef @.str.44, i32 noundef 1)
  br label %120

98:                                               ; preds = %84
  %99 = load ptr, ptr %9, align 8
  %100 = getelementptr inbounds %struct.png_unknown_chunk_t, ptr %99, i32 0, i32 1
  %101 = load ptr, ptr %100, align 8
  %102 = load ptr, ptr %7, align 8
  %103 = getelementptr inbounds %struct.png_unknown_chunk_t, ptr %102, i32 0, i32 1
  %104 = load ptr, ptr %103, align 8
  %105 = load ptr, ptr %7, align 8
  %106 = getelementptr inbounds %struct.png_unknown_chunk_t, ptr %105, i32 0, i32 2
  %107 = load i64, ptr %106, align 8
  call void @llvm.memcpy.p0.p0.i64(ptr align 1 %101, ptr align 1 %104, i64 %107, i1 false)
  %108 = load ptr, ptr %7, align 8
  %109 = getelementptr inbounds %struct.png_unknown_chunk_t, ptr %108, i32 0, i32 2
  %110 = load i64, ptr %109, align 8
  %111 = load ptr, ptr %9, align 8
  %112 = getelementptr inbounds %struct.png_unknown_chunk_t, ptr %111, i32 0, i32 2
  store i64 %110, ptr %112, align 8
  br label %113

113:                                              ; preds = %98, %79
  %114 = load ptr, ptr %9, align 8
  %115 = getelementptr inbounds %struct.png_unknown_chunk_t, ptr %114, i32 1
  store ptr %115, ptr %9, align 8
  %116 = load ptr, ptr %6, align 8
  %117 = getelementptr inbounds %struct.png_info_def, ptr %116, i32 0, i32 47
  %118 = load i32, ptr %117, align 8
  %119 = add nsw i32 %118, 1
  store i32 %119, ptr %117, align 8
  br label %120

120:                                              ; preds = %113, %96
  %121 = load i32, ptr %8, align 4
  %122 = add nsw i32 %121, -1
  store i32 %122, ptr %8, align 4
  %123 = load ptr, ptr %7, align 8
  %124 = getelementptr inbounds %struct.png_unknown_chunk_t, ptr %123, i32 1
  store ptr %124, ptr %7, align 8
  br label %54, !llvm.loop !10

125:                                              ; preds = %54, %34, %21
  ret void
}